target datalayout = "e-m:e-p270:32:32-p271:32:32-p272:64:64-i64:64-i128:128-f80:128-n8:16:32:64-S128"
target triple = "x86_64-pc-linux-gnu"

%struct._object = type { %union.anon, ptr }
%union.anon = type { i64 }
%struct.PyVarObject = type { %struct._object, i64 }
%struct._typeobject = type { %struct.PyVarObject, ptr, i64, i64, ptr, i64, ptr, ptr, ptr, ptr, ptr, ptr, ptr, ptr, ptr, ptr, ptr, ptr, ptr, i64, ptr, ptr, ptr, ptr, i64, ptr, ptr, ptr, ptr, ptr, ptr, ptr, ptr, ptr, i64, ptr, ptr, ptr, ptr, ptr, ptr, ptr, ptr, ptr, ptr, ptr, i32, ptr, ptr, i8, i16 }
%struct.anon.4 = type { i32, i32 }

@_Py_tss_tstate = external thread_local global ptr, align 8
@_Py_NotImplementedStruct = external global %struct._object, align 8

; Function Attrs: inlinehint nounwind uwtable
define internal i32 @PyType_HasFeature(ptr noundef %0, i64 noundef %1) #2 {
  %3 = alloca ptr, align 8
  %4 = alloca i64, align 8
  %5 = alloca i64, align 8
  store ptr %0, ptr %3, align 8, !tbaa !9
  store i64 %1, ptr %4, align 8, !tbaa !11
  call void @llvm.lifetime.start.p0(i64 8, ptr %5) #11
  %6 = load ptr, ptr %3, align 8, !tbaa !9
  %7 = getelementptr inbounds nuw %struct._typeobject, ptr %6, i32 0, i32 19
  %8 = load i64, ptr %7, align 8, !tbaa !105
  store i64 %8, ptr %5, align 8, !tbaa !11
  %9 = load i64, ptr %5, align 8, !tbaa !11
  %10 = load i64, ptr %4, align 8, !tbaa !11
  %11 = and i64 %9, %10
  %12 = icmp ne i64 %11, 0
  %13 = zext i1 %12 to i32
  call void @llvm.lifetime.end.p0(i64 8, ptr %5) #11
  ret i32 %13
}

; Function Attrs: inlinehint nounwind uwtable
define internal i64 @_PyVectorcall_NARGS(i64 noundef %0) #2 {
  %2 = alloca i64, align 8
  store i64 %0, ptr %2, align 8, !tbaa !11
  %3 = load i64, ptr %2, align 8, !tbaa !11
  %4 = and i64 %3, 9223372036854775807
  ret i64 %4
}

; Function Attrs: inlinehint nounwind uwtable
define internal ptr @_PyVectorcall_FunctionInline(ptr noundef %0) #2 {
  %2 = alloca ptr, align 8
  %3 = alloca ptr, align 8
  %4 = alloca ptr, align 8
  %5 = alloca i32, align 4
  %6 = alloca i64, align 8
  %7 = alloca ptr, align 8
  store ptr %0, ptr %3, align 8, !tbaa !97
  call void @llvm.lifetime.start.p0(i64 8, ptr %4) #11
  %8 = load ptr, ptr %3, align 8, !tbaa !97
  %9 = call ptr @_Py_TYPE(ptr noundef %8)
  store ptr %9, ptr %4, align 8, !tbaa !9
  %10 = load ptr, ptr %4, align 8, !tbaa !9
  %11 = call i32 @PyType_HasFeature(ptr noundef %10, i64 noundef 2048)
  %12 = icmp ne i32 %11, 0
  br i1 %12, label %14, label %13

13:                                               ; preds = %1
  store ptr null, ptr %2, align 8
  store i32 1, ptr %5, align 4
  br label %22

14:                                               ; preds = %1
  call void @llvm.lifetime.start.p0(i64 8, ptr %6) #11
  %15 = load ptr, ptr %4, align 8, !tbaa !9
  %16 = getelementptr inbounds nuw %struct._typeobject, ptr %15, i32 0, i32 5
  %17 = load i64, ptr %16, align 8, !tbaa !292
  store i64 %17, ptr %6, align 8, !tbaa !11
  call void @llvm.lifetime.start.p0(i64 8, ptr %7) #11
  %18 = load ptr, ptr %3, align 8, !tbaa !97
  %19 = load i64, ptr %6, align 8, !tbaa !11
  %20 = getelementptr i8, ptr %18, i64 %19
  call void @llvm.memcpy.p0.p0.i64(ptr align 8 %7, ptr align 1 %20, i64 8, i1 false)
  %21 = load ptr, ptr %7, align 8, !tbaa !13
  store ptr %21, ptr %2, align 8
  store i32 1, ptr %5, align 4
  call void @llvm.lifetime.end.p0(i64 8, ptr %7) #11
  call void @llvm.lifetime.end.p0(i64 8, ptr %6) #11
  br label %22

22:                                               ; preds = %14, %13
  call void @llvm.lifetime.end.p0(i64 8, ptr %4) #11
  %23 = load ptr, ptr %2, align 8
  ret ptr %23
}

; Function Attrs: alwaysinline nounwind uwtable
define internal i32 @_Py_IsImmortal(ptr noundef %0) #4 {
  %2 = alloca ptr, align 8
  store ptr %0, ptr %2, align 8, !tbaa !97
  %3 = load ptr, ptr %2, align 8, !tbaa !97
  %4 = getelementptr inbounds nuw %struct._object, ptr %3, i32 0, i32 0
  %5 = getelementptr inbounds nuw %struct.anon.4, ptr %4, i32 0, i32 0
  %6 = load i32, ptr %5, align 8, !tbaa !114
  %7 = icmp slt i32 %6, 0
  %8 = zext i1 %7 to i32
  ret i32 %8
}

; Function Attrs: inlinehint nounwind uwtable
define internal ptr @_PyObject_VectorcallTstate(ptr noundef %0, ptr noundef %1, ptr noundef %2, i64 noundef %3, ptr noundef %4) #2 {
  %6 = alloca ptr, align 8
  %7 = alloca ptr, align 8
  %8 = alloca ptr, align 8
  %9 = alloca ptr, align 8
  %10 = alloca i64, align 8
  %11 = alloca ptr, align 8
  %12 = alloca ptr, align 8
  %13 = alloca ptr, align 8
  %14 = alloca i64, align 8
  %15 = alloca i32, align 4
  store ptr %0, ptr %7, align 8, !tbaa !100
  store ptr %1, ptr %8, align 8, !tbaa !97
  store ptr %2, ptr %9, align 8, !tbaa !137
  store i64 %3, ptr %10, align 8, !tbaa !11
  store ptr %4, ptr %11, align 8, !tbaa !97
  call void @llvm.lifetime.start.p0(i64 8, ptr %12) #11
  call void @llvm.lifetime.start.p0(i64 8, ptr %13) #11
  %16 = load ptr, ptr %8, align 8, !tbaa !97
  %17 = call ptr @_PyVectorcall_FunctionInline(ptr noundef %16)
  store ptr %17, ptr %12, align 8, !tbaa !13
  %18 = load ptr, ptr %12, align 8, !tbaa !13
  %19 = icmp eq ptr %18, null
  br i1 %19, label %20, label %29

20:                                               ; preds = %5
  call void @llvm.lifetime.start.p0(i64 8, ptr %14) #11
  %21 = load i64, ptr %10, align 8, !tbaa !11
  %22 = call i64 @_PyVectorcall_NARGS(i64 noundef %21)
  store i64 %22, ptr %14, align 8, !tbaa !11
  %23 = load ptr, ptr %7, align 8, !tbaa !100
  %24 = load ptr, ptr %8, align 8, !tbaa !97
  %25 = load ptr, ptr %9, align 8, !tbaa !137
  %26 = load i64, ptr %14, align 8, !tbaa !11
  %27 = load ptr, ptr %11, align 8, !tbaa !97
  %28 = call ptr @_PyObject_MakeTpCall(ptr noundef %23, ptr noundef %24, ptr noundef %25, i64 noundef %26, ptr noundef %27)
  store ptr %28, ptr %6, align 8
  store i32 1, ptr %15, align 4
  call void @llvm.lifetime.end.p0(i64 8, ptr %14) #11
  br label %40

29:                                               ; preds = %5
  %30 = load ptr, ptr %12, align 8, !tbaa !13
  %31 = load ptr, ptr %8, align 8, !tbaa !97
  %32 = load ptr, ptr %9, align 8, !tbaa !137
  %33 = load i64, ptr %10, align 8, !tbaa !11
  %34 = load ptr, ptr %11, align 8, !tbaa !97
  %35 = call ptr %30(ptr noundef %31, ptr noundef %32, i64 noundef %33, ptr noundef %34)
  store ptr %35, ptr %13, align 8, !tbaa !97
  %36 = load ptr, ptr %7, align 8, !tbaa !100
  %37 = load ptr, ptr %8, align 8, !tbaa !97
  %38 = load ptr, ptr %13, align 8, !tbaa !97
  %39 = call ptr @_Py_CheckFunctionResult(ptr noundef %36, ptr noundef %37, ptr noundef %38, ptr noundef null)
  store ptr %39, ptr %6, align 8
  store i32 1, ptr %15, align 4
  br label %40

40:                                               ; preds = %29, %20
  call void @llvm.lifetime.end.p0(i64 8, ptr %13) #11
  call void @llvm.lifetime.end.p0(i64 8, ptr %12) #11
  %41 = load ptr, ptr %6, align 8
  ret ptr %41
}

; Function Attrs: inlinehint nounwind uwtable
define internal i32 @_PyType_HasFeature(ptr noundef %0, i64 noundef %1) #2 {
  %3 = alloca ptr, align 8
  %4 = alloca i64, align 8
  store ptr %0, ptr %3, align 8, !tbaa !9
  store i64 %1, ptr %4, align 8, !tbaa !11
  %5 = load ptr, ptr %3, align 8, !tbaa !9
  %6 = getelementptr inbounds nuw %struct._typeobject, ptr %5, i32 0, i32 19
  %7 = load i64, ptr %6, align 8, !tbaa !105
  %8 = load i64, ptr %4, align 8, !tbaa !11
  %9 = and i64 %7, %8
  %10 = icmp ne i64 %9, 0
  %11 = zext i1 %10 to i32
  ret i32 %11
}

; Function Attrs: nounwind uwtable
define dso_local ptr @_PyType_LookupRef(ptr noundef %0, ptr noundef %1) #0 {
  %3 = alloca ptr, align 8
  %4 = alloca ptr, align 8
  store ptr %0, ptr %3, align 8, !tbaa !9
  store ptr %1, ptr %4, align 8, !tbaa !97
  %5 = load ptr, ptr %3, align 8, !tbaa !9
  %6 = load ptr, ptr %4, align 8, !tbaa !97
  %7 = call ptr @_PyType_LookupRefAndVersion(ptr noundef %5, ptr noundef %6, ptr noundef null)
  ret ptr %7
}

; Function Attrs: inlinehint nounwind uwtable
define internal ptr @_Py_TYPE(ptr noundef %0) #2 {
  %2 = alloca ptr, align 8
  store ptr %0, ptr %2, align 8, !tbaa !97
  %3 = load ptr, ptr %2, align 8, !tbaa !97
  %4 = getelementptr inbounds nuw %struct._object, ptr %3, i32 0, i32 1
  %5 = load ptr, ptr %4, align 8, !tbaa !243
  ret ptr %5
}

; Function Attrs: alwaysinline nounwind uwtable
define internal void @Py_DECREF(ptr noundef %0) #4 {
  %2 = alloca ptr, align 8
  store ptr %0, ptr %2, align 8, !tbaa !97
  %3 = load ptr, ptr %2, align 8, !tbaa !97
  %4 = call i32 @_Py_IsImmortal(ptr noundef %3)
  %5 = icmp ne i32 %4, 0
  br i1 %5, label %6, label %7

6:                                                ; preds = %1
  br label %16

7:                                                ; preds = %1
  %8 = load ptr, ptr %2, align 8, !tbaa !97
  %9 = getelementptr inbounds nuw %struct._object, ptr %8, i32 0, i32 0
  %10 = getelementptr inbounds nuw %struct.anon.4, ptr %9, i32 0, i32 0
  %11 = load i32, ptr %10, align 8, !tbaa !114
  %12 = add i32 %11, -1
  store i32 %12, ptr %10, align 8, !tbaa !114
  %13 = icmp eq i32 %12, 0
  br i1 %13, label %14, label %16

14:                                               ; preds = %7
  %15 = load ptr, ptr %2, align 8, !tbaa !97
  call void @_Py_Dealloc(ptr noundef %15)
  br label %16

16:                                               ; preds = %6, %14, %7
  ret void
}

; Function Attrs: inlinehint nounwind uwtable
define internal ptr @vectorcall_unbound(ptr noundef %0, i32 noundef %1, ptr noundef %2, ptr noundef %3, i64 noundef %4) #2 {
  %6 = alloca ptr, align 8
  %7 = alloca i32, align 4
  %8 = alloca ptr, align 8
  %9 = alloca ptr, align 8
  %10 = alloca i64, align 8
  %11 = alloca i64, align 8
  store ptr %0, ptr %6, align 8, !tbaa !100
  store i32 %1, ptr %7, align 4, !tbaa !115
  store ptr %2, ptr %8, align 8, !tbaa !97
  store ptr %3, ptr %9, align 8, !tbaa !137
  store i64 %4, ptr %10, align 8, !tbaa !11
  call void @llvm.lifetime.start.p0(i64 8, ptr %11) #11
  %12 = load i64, ptr %10, align 8, !tbaa !11
  store i64 %12, ptr %11, align 8, !tbaa !11
  %13 = load i32, ptr %7, align 4, !tbaa !115
  %14 = icmp ne i32 %13, 0
  br i1 %14, label %21, label %15

15:                                               ; preds = %5
  %16 = load ptr, ptr %9, align 8, !tbaa !137
  %17 = getelementptr ptr, ptr %16, i32 1
  store ptr %17, ptr %9, align 8, !tbaa !137
  %18 = load i64, ptr %11, align 8, !tbaa !11
  %19 = sub i64 %18, 1
  %20 = add i64 %19, -9223372036854775808
  store i64 %20, ptr %11, align 8, !tbaa !11
  br label %21

21:                                               ; preds = %15, %5
  %22 = load ptr, ptr %6, align 8, !tbaa !100
  %23 = load ptr, ptr %8, align 8, !tbaa !97
  %24 = load ptr, ptr %9, align 8, !tbaa !137
  %25 = load i64, ptr %11, align 8, !tbaa !11
  %26 = call ptr @_PyObject_VectorcallTstate(ptr noundef %22, ptr noundef %23, ptr noundef %24, i64 noundef %25, ptr noundef null)
  call void @llvm.lifetime.end.p0(i64 8, ptr %11) #11
  ret ptr %26
}

; Function Attrs: nounwind uwtable
define internal ptr @lookup_maybe_method(ptr noundef %0, ptr noundef %1, ptr noundef %2) #0 {
  %4 = alloca ptr, align 8
  %5 = alloca ptr, align 8
  %6 = alloca ptr, align 8
  %7 = alloca ptr, align 8
  %8 = alloca ptr, align 8
  %9 = alloca i32, align 4
  %10 = alloca ptr, align 8
  %11 = alloca ptr, align 8
  %12 = alloca ptr, align 8
  store ptr %0, ptr %5, align 8, !tbaa !97
  store ptr %1, ptr %6, align 8, !tbaa !97
  store ptr %2, ptr %7, align 8, !tbaa !317
  call void @llvm.lifetime.start.p0(i64 8, ptr %8) #11
  %13 = load ptr, ptr %5, align 8, !tbaa !97
  %14 = call ptr @_Py_TYPE(ptr noundef %13)
  %15 = load ptr, ptr %6, align 8, !tbaa !97
  %16 = call ptr @_PyType_LookupRef(ptr noundef %14, ptr noundef %15)
  store ptr %16, ptr %8, align 8, !tbaa !97
  %17 = load ptr, ptr %8, align 8, !tbaa !97
  %18 = icmp eq ptr %17, null
  br i1 %18, label %19, label %20

19:                                               ; preds = %3
  store ptr null, ptr %4, align 8
  store i32 1, ptr %9, align 4
  br label %52

20:                                               ; preds = %3
  %21 = load ptr, ptr %8, align 8, !tbaa !97
  %22 = call ptr @_Py_TYPE(ptr noundef %21)
  %23 = call i32 @_PyType_HasFeature(ptr noundef %22, i64 noundef 131072)
  %24 = icmp ne i32 %23, 0
  br i1 %24, label %25, label %27

25:                                               ; preds = %20
  %26 = load ptr, ptr %7, align 8, !tbaa !317
  store i32 1, ptr %26, align 4, !tbaa !115
  br label %50

27:                                               ; preds = %20
  %28 = load ptr, ptr %7, align 8, !tbaa !317
  store i32 0, ptr %28, align 4, !tbaa !115
  call void @llvm.lifetime.start.p0(i64 8, ptr %10) #11
  %29 = load ptr, ptr %8, align 8, !tbaa !97
  %30 = call ptr @_Py_TYPE(ptr noundef %29)
  %31 = getelementptr inbounds nuw %struct._typeobject, ptr %30, i32 0, i32 32
  %32 = load ptr, ptr %31, align 8, !tbaa !253
  store ptr %32, ptr %10, align 8, !tbaa !13
  %33 = load ptr, ptr %10, align 8, !tbaa !13
  %34 = icmp ne ptr %33, null
  br i1 %34, label %35, label %49

35:                                               ; preds = %27
  br label %36

36:                                               ; preds = %35
  call void @llvm.lifetime.start.p0(i64 8, ptr %11) #11
  store ptr %8, ptr %11, align 8, !tbaa !137
  call void @llvm.lifetime.start.p0(i64 8, ptr %12) #11
  %37 = load ptr, ptr %11, align 8, !tbaa !137
  %38 = load ptr, ptr %37, align 8, !tbaa !97
  store ptr %38, ptr %12, align 8, !tbaa !97
  %39 = load ptr, ptr %10, align 8, !tbaa !13
  %40 = load ptr, ptr %8, align 8, !tbaa !97
  %41 = load ptr, ptr %5, align 8, !tbaa !97
  %42 = load ptr, ptr %5, align 8, !tbaa !97
  %43 = call ptr @_Py_TYPE(ptr noundef %42)
  %44 = call ptr %39(ptr noundef %40, ptr noundef %41, ptr noundef %43)
  %45 = load ptr, ptr %11, align 8, !tbaa !137
  store ptr %44, ptr %45, align 8, !tbaa !97
  %46 = load ptr, ptr %12, align 8, !tbaa !97
  call void @Py_DECREF(ptr noundef %46)
  call void @llvm.lifetime.end.p0(i64 8, ptr %12) #11
  call void @llvm.lifetime.end.p0(i64 8, ptr %11) #11
  br label %47

47:                                               ; preds = %36
  br label %48

48:                                               ; preds = %47
  br label %49

49:                                               ; preds = %48, %27
  call void @llvm.lifetime.end.p0(i64 8, ptr %10) #11
  br label %50

50:                                               ; preds = %49, %25
  %51 = load ptr, ptr %8, align 8, !tbaa !97
  store ptr %51, ptr %4, align 8
  store i32 1, ptr %9, align 4
  br label %52

52:                                               ; preds = %50, %19
  call void @llvm.lifetime.end.p0(i64 8, ptr %8) #11
  %53 = load ptr, ptr %4, align 8
  ret ptr %53
}

; Function Attrs: inlinehint nounwind uwtable
define internal ptr @_PyThreadState_GET() #2 {
  %1 = call align 8 ptr @llvm.threadlocal.address.p0(ptr align 8 @_Py_tss_tstate)
  %2 = load ptr, ptr %1, align 8, !tbaa !100
  ret ptr %2
}

; Function Attrs: nounwind uwtable
define internal ptr @slot_tp_richcompare(ptr noundef %0, ptr noundef %1, i32 noundef %2) #0 {
  %4 = alloca ptr, align 8
  %5 = alloca ptr, align 8
  %6 = alloca ptr, align 8
  %7 = alloca i32, align 4
  %8 = alloca ptr, align 8
  %9 = alloca i32, align 4
  %10 = alloca ptr, align 8
  %11 = alloca i32, align 4
  %12 = alloca [2 x ptr], align 16
  %13 = alloca ptr, align 8
  store ptr %0, ptr %5, align 8, !tbaa !97
  store ptr %1, ptr %6, align 8, !tbaa !97
  store i32 %2, ptr %7, align 4, !tbaa !115
  call void @llvm.lifetime.start.p0(i64 8, ptr %8) #11
  %14 = call ptr @_PyThreadState_GET()
  store ptr %14, ptr %8, align 8, !tbaa !100
  call void @llvm.lifetime.start.p0(i64 4, ptr %9) #11
  call void @llvm.lifetime.start.p0(i64 8, ptr %10) #11
  %15 = load ptr, ptr %5, align 8, !tbaa !97
  %16 = load i32, ptr %7, align 4, !tbaa !115
  %17 = sext i32 %16 to i64
  %18 = getelementptr [6 x ptr], ptr @name_op, i64 0, i64 %17
  %19 = load ptr, ptr %18, align 8, !tbaa !97
  %20 = call ptr @lookup_maybe_method(ptr noundef %15, ptr noundef %19, ptr noundef %9)
  store ptr %20, ptr %10, align 8, !tbaa !97
  %21 = load ptr, ptr %10, align 8, !tbaa !97
  %22 = icmp eq ptr %21, null
  br i1 %22, label %23, label %24

23:                                               ; preds = %3
  call void @PyErr_Clear()
  store ptr @_Py_NotImplementedStruct, ptr %4, align 8
  store i32 1, ptr %11, align 4
  br label %35

24:                                               ; preds = %3
  call void @llvm.lifetime.start.p0(i64 16, ptr %12) #11
  %25 = load ptr, ptr %5, align 8, !tbaa !97
  store ptr %25, ptr %12, align 8, !tbaa !97
  %26 = getelementptr inbounds ptr, ptr %12, i64 1
  %27 = load ptr, ptr %6, align 8, !tbaa !97
  store ptr %27, ptr %26, align 8, !tbaa !97
  call void @llvm.lifetime.start.p0(i64 8, ptr %13) #11
  %28 = load ptr, ptr %8, align 8, !tbaa !100
  %29 = load i32, ptr %9, align 4, !tbaa !115
  %30 = load ptr, ptr %10, align 8, !tbaa !97
  %31 = getelementptr inbounds [2 x ptr], ptr %12, i64 0, i64 0
  %32 = call ptr @vectorcall_unbound(ptr noundef %28, i32 noundef %29, ptr noundef %30, ptr noundef %31, i64 noundef 2)
  store ptr %32, ptr %13, align 8, !tbaa !97
  %33 = load ptr, ptr %10, align 8, !tbaa !97
  call void @Py_DECREF(ptr noundef %33)
  %34 = load ptr, ptr %13, align 8, !tbaa !97
  store ptr %34, ptr %4, align 8
  store i32 1, ptr %11, align 4
  call void @llvm.lifetime.end.p0(i64 8, ptr %13) #11
  call void @llvm.lifetime.end.p0(i64 16, ptr %12) #11
  br label %35

35:                                               ; preds = %24, %23
  call void @llvm.lifetime.end.p0(i64 8, ptr %10) #11
  call void @llvm.lifetime.end.p0(i64 4, ptr %9) #11
  call void @llvm.lifetime.end.p0(i64 8, ptr %8) #11
  %36 = load ptr, ptr %4, align 8
  ret ptr %36
}