; Function Attrs: nounwind uwtable
define internal ptr @slot_tp_richcompare(ptr noundef %0, ptr noundef %1, i32 noundef %2) #1 {
  %4 = alloca [2 x ptr], align 16
  %5 = tail call align 8 ptr @llvm.threadlocal.address.p0(ptr align 8 @_Py_tss_tstate)
  %6 = load ptr, ptr %5, align 8, !tbaa !22
  %7 = sext i32 %2 to i64
  %8 = getelementptr [6 x ptr], ptr @name_op, i64 0, i64 %7
  %9 = load ptr, ptr %8, align 8, !tbaa !105
  %10 = getelementptr i8, ptr %0, i64 8
  %.val23.i = load ptr, ptr %10, align 8, !tbaa !116
  %11 = tail call ptr @_PyType_LookupRefAndVersion(ptr noundef %.val23.i, ptr noundef %9, ptr noundef null)
  %12 = icmp eq ptr %11, null
  br i1 %12, label %lookup_maybe_method.exit.thread19, label %13

13:                                               ; preds = %3
  %14 = getelementptr i8, ptr %11, i64 8
  %.val22.i = load ptr, ptr %14, align 8, !tbaa !116
  %15 = getelementptr i8, ptr %.val22.i, i64 168
  %.val24.i = load i64, ptr %15, align 8, !tbaa !108
  %16 = and i64 %.val24.i, 131072
  %.not.i10 = icmp eq i64 %16, 0
  br i1 %.not.i10, label %17, label %lookup_maybe_method.exit.thread

17:                                               ; preds = %13
  %18 = getelementptr inbounds nuw i8, ptr %.val22.i, i64 272
  %19 = load ptr, ptr %18, align 8, !tbaa !239
  %.not20.i = icmp eq ptr %19, null
  br i1 %.not20.i, label %lookup_maybe_method.exit.thread, label %20

20:                                               ; preds = %17
  %.val.i = load ptr, ptr %10, align 8, !tbaa !116
  %21 = tail call ptr %19(ptr noundef nonnull %11, ptr noundef nonnull %0, ptr noundef %.val.i) #24
  %22 = load i32, ptr %11, align 8, !tbaa !102
  %.not.i.i = icmp sgt i32 %22, -1
  br i1 %.not.i.i, label %23, label %lookup_maybe_method.exit

23:                                               ; preds = %20
  %24 = add nsw i32 %22, -1
  store i32 %24, ptr %11, align 8, !tbaa !102
  %25 = icmp eq i32 %24, 0
  br i1 %25, label %26, label %lookup_maybe_method.exit

26:                                               ; preds = %23
  tail call void @_Py_Dealloc(ptr noundef nonnull %11) #24
  br label %lookup_maybe_method.exit

lookup_maybe_method.exit:                         ; preds = %20, %23, %26
  %27 = icmp eq ptr %21, null
  br i1 %27, label %lookup_maybe_method.exit.thread19, label %lookup_maybe_method.exit.lookup_maybe_method.exit.thread_crit_edge

lookup_maybe_method.exit.lookup_maybe_method.exit.thread_crit_edge: ; preds = %lookup_maybe_method.exit
  %.phi.trans.insert = getelementptr i8, ptr %21, i64 8
  %.val.i.i.i.pre = load ptr, ptr %.phi.trans.insert, align 8, !tbaa !116
  %.phi.trans.insert23 = getelementptr i8, ptr %.val.i.i.i.pre, i64 168
  %.val6.i.i.i.pre = load i64, ptr %.phi.trans.insert23, align 8, !tbaa !108
  br label %lookup_maybe_method.exit.thread

lookup_maybe_method.exit.thread19:                ; preds = %3, %lookup_maybe_method.exit
  tail call void @PyErr_Clear() #24
  br label %44

lookup_maybe_method.exit.thread:                  ; preds = %lookup_maybe_method.exit.lookup_maybe_method.exit.thread_crit_edge, %13, %17
  %.val6.i.i.i = phi i64 [ %.val6.i.i.i.pre, %lookup_maybe_method.exit.lookup_maybe_method.exit.thread_crit_edge ], [ %.val24.i, %17 ], [ %.val24.i, %13 ]
  %.val.i.i.i = phi ptr [ %.val.i.i.i.pre, %lookup_maybe_method.exit.lookup_maybe_method.exit.thread_crit_edge ], [ %.val22.i, %17 ], [ %.val22.i, %13 ]
  %.0.i12 = phi i64 [ -9223372036854775807, %lookup_maybe_method.exit.lookup_maybe_method.exit.thread_crit_edge ], [ -9223372036854775807, %17 ], [ 2, %13 ]
  %.0.i18 = phi ptr [ %21, %lookup_maybe_method.exit.lookup_maybe_method.exit.thread_crit_edge ], [ %11, %17 ], [ %11, %13 ]
  call void @llvm.lifetime.start.p0(i64 16, ptr nonnull %4) #24
  store ptr %0, ptr %4, align 16, !tbaa !105
  %28 = getelementptr inbounds nuw i8, ptr %4, i64 8
  store ptr %1, ptr %28, align 8, !tbaa !105
  %.07.idx.i.sroa.sel = select i1 %.not.i10, ptr %28, ptr %4
  %29 = and i64 %.val6.i.i.i, 2048
  %.not.i.i.i = icmp eq i64 %29, 0
  br i1 %.not.i.i.i, label %_PyVectorcall_FunctionInline.exit.thread.i.i, label %_PyVectorcall_FunctionInline.exit.i.i

_PyVectorcall_FunctionInline.exit.i.i:            ; preds = %lookup_maybe_method.exit.thread
  %30 = getelementptr inbounds nuw i8, ptr %.val.i.i.i, i64 56
  %31 = load i64, ptr %30, align 8, !tbaa !274
  %32 = getelementptr i8, ptr %.0.i18, i64 %31
  %.0.copyload.i.i.i = load ptr, ptr %32, align 1
  %33 = icmp eq ptr %.0.copyload.i.i.i, null
  br i1 %33, label %_PyVectorcall_FunctionInline.exit.thread.i.i, label %36

_PyVectorcall_FunctionInline.exit.thread.i.i:     ; preds = %_PyVectorcall_FunctionInline.exit.i.i, %lookup_maybe_method.exit.thread
  %34 = and i64 %.0.i12, 3
  %35 = call ptr @_PyObject_MakeTpCall(ptr noundef %6, ptr noundef nonnull %.0.i18, ptr noundef nonnull %.07.idx.i.sroa.sel, i64 noundef %34, ptr noundef null) #24
  br label %vectorcall_unbound.exit

36:                                               ; preds = %_PyVectorcall_FunctionInline.exit.i.i
  %37 = call ptr %.0.copyload.i.i.i(ptr noundef nonnull %.0.i18, ptr noundef nonnull %.07.idx.i.sroa.sel, i64 noundef %.0.i12, ptr noundef null) #24
  %38 = call ptr @_Py_CheckFunctionResult(ptr noundef %6, ptr noundef nonnull %.0.i18, ptr noundef %37, ptr noundef null) #24
  br label %vectorcall_unbound.exit

vectorcall_unbound.exit:                          ; preds = %_PyVectorcall_FunctionInline.exit.thread.i.i, %36
  %.0.i.i = phi ptr [ %35, %_PyVectorcall_FunctionInline.exit.thread.i.i ], [ %38, %36 ]
  %39 = load i32, ptr %.0.i18, align 8, !tbaa !102
  %.not.i = icmp sgt i32 %39, -1
  br i1 %.not.i, label %40, label %Py_DECREF.exit

40:                                               ; preds = %vectorcall_unbound.exit
  %41 = add nsw i32 %39, -1
  store i32 %41, ptr %.0.i18, align 8, !tbaa !102
  %42 = icmp eq i32 %41, 0
  br i1 %42, label %43, label %Py_DECREF.exit

43:                                               ; preds = %40
  call void @_Py_Dealloc(ptr noundef nonnull %.0.i18) #24
  br label %Py_DECREF.exit

Py_DECREF.exit:                                   ; preds = %vectorcall_unbound.exit, %40, %43
  call void @llvm.lifetime.end.p0(i64 16, ptr nonnull %4) #24
  br label %44

44:                                               ; preds = %Py_DECREF.exit, %lookup_maybe_method.exit.thread19
  %.0 = phi ptr [ @_Py_NotImplementedStruct, %lookup_maybe_method.exit.thread19 ], [ %.0.i.i, %Py_DECREF.exit ]
  ret ptr %.0
}